target datalayout = "e-m:e-p270:32:32-p271:32:32-p272:64:64-i64:64-i128:128-f80:128-n8:16:32:64-S128"
target triple = "x86_64-pc-linux-gnu"

; Function Attrs: nounwind uwtable
define i32 @ossl_rsa_check_prime_factor(ptr noundef %0, ptr noundef %1, i32 noundef %2, ptr noundef %3) #0 {
  %5 = alloca i32, align 4
  %6 = alloca ptr, align 8
  %7 = alloca ptr, align 8
  %8 = alloca i32, align 4
  %9 = alloca ptr, align 8
  %10 = alloca i32, align 4
  %11 = alloca ptr, align 8
  %12 = alloca ptr, align 8
  %13 = alloca i32, align 4
  store ptr %0, ptr %6, align 8, !tbaa !12
  store ptr %1, ptr %7, align 8, !tbaa !12
  store i32 %2, ptr %8, align 4, !tbaa !10
  store ptr %3, ptr %9, align 8, !tbaa !8
  call void @llvm.lifetime.start.p0(i64 4, ptr %10) #3
  store i32 0, ptr %10, align 4, !tbaa !10
  call void @llvm.lifetime.start.p0(i64 8, ptr %11) #3
  store ptr null, ptr %11, align 8, !tbaa !12
  call void @llvm.lifetime.start.p0(i64 8, ptr %12) #3
  store ptr null, ptr %12, align 8, !tbaa !12
  %14 = load ptr, ptr %6, align 8, !tbaa !12
  %15 = load ptr, ptr %9, align 8, !tbaa !8
  %16 = call i32 @BN_check_prime(ptr noundef %14, ptr noundef %15, ptr noundef null)
  %17 = icmp ne i32 %16, 1
  br i1 %17, label %24, label %18

18:                                               ; preds = %4
  %19 = load ptr, ptr %6, align 8, !tbaa !12
  %20 = load i32, ptr %8, align 4, !tbaa !10
  %21 = load ptr, ptr %9, align 8, !tbaa !8
  %22 = call i32 @ossl_rsa_check_prime_factor_range(ptr noundef %19, i32 noundef %20, ptr noundef %21)
  %23 = icmp ne i32 %22, 1
  br i1 %23, label %24, label %25

24:                                               ; preds = %18, %4
  store i32 0, ptr %5, align 4
  store i32 1, ptr %13, align 4
  br label %66

25:                                               ; preds = %18
  %26 = load ptr, ptr %9, align 8, !tbaa !8
  call void @BN_CTX_start(ptr noundef %26)
  %27 = load ptr, ptr %9, align 8, !tbaa !8
  %28 = call ptr @BN_CTX_get(ptr noundef %27)
  store ptr %28, ptr %11, align 8, !tbaa !12
  %29 = load ptr, ptr %9, align 8, !tbaa !8
  %30 = call ptr @BN_CTX_get(ptr noundef %29)
  store ptr %30, ptr %12, align 8, !tbaa !12
  %31 = load ptr, ptr %12, align 8, !tbaa !12
  %32 = icmp ne ptr %31, null
  br i1 %32, label %33, label %36

33:                                               ; preds = %25
  %34 = load ptr, ptr %11, align 8, !tbaa !12
  call void @BN_set_flags(ptr noundef %34, i32 noundef 4)
  %35 = load ptr, ptr %12, align 8, !tbaa !12
  call void @BN_set_flags(ptr noundef %35, i32 noundef 4)
  store i32 1, ptr %10, align 4, !tbaa !10
  br label %37

36:                                               ; preds = %25
  store i32 0, ptr %10, align 4, !tbaa !10
  br label %37

37:                                               ; preds = %36, %33
  %38 = load i32, ptr %10, align 4, !tbaa !10
  %39 = icmp ne i32 %38, 0
  br i1 %39, label %40, label %60

40:                                               ; preds = %37
  %41 = load ptr, ptr %11, align 8, !tbaa !12
  %42 = load ptr, ptr %6, align 8, !tbaa !12
  %43 = call ptr @BN_copy(ptr noundef %41, ptr noundef %42)
  %44 = icmp ne ptr %43, null
  br i1 %44, label %45, label %60

45:                                               ; preds = %40
  %46 = load ptr, ptr %11, align 8, !tbaa !12
  %47 = call i32 @BN_sub_word(ptr noundef %46, i64 noundef 1)
  %48 = icmp ne i32 %47, 0
  br i1 %48, label %49, label %60

49:                                               ; preds = %45
  %50 = load ptr, ptr %12, align 8, !tbaa !12
  %51 = load ptr, ptr %11, align 8, !tbaa !12
  %52 = load ptr, ptr %7, align 8, !tbaa !12
  %53 = load ptr, ptr %9, align 8, !tbaa !8
  %54 = call i32 @BN_gcd(ptr noundef %50, ptr noundef %51, ptr noundef %52, ptr noundef %53)
  %55 = icmp ne i32 %54, 0
  br i1 %55, label %56, label %60

56:                                               ; preds = %49
  %57 = load ptr, ptr %12, align 8, !tbaa !12
  %58 = call i32 @BN_is_one(ptr noundef %57)
  %59 = icmp ne i32 %58, 0
  br label %60

60:                                               ; preds = %56, %49, %45, %40, %37
  %61 = phi i1 [ false, %49 ], [ false, %45 ], [ false, %40 ], [ false, %37 ], [ %59, %56 ]
  %62 = zext i1 %61 to i32
  store i32 %62, ptr %10, align 4, !tbaa !10
  %63 = load ptr, ptr %11, align 8, !tbaa !12
  call void @BN_clear(ptr noundef %63)
  %64 = load ptr, ptr %9, align 8, !tbaa !8
  call void @BN_CTX_end(ptr noundef %64)
  %65 = load i32, ptr %10, align 4, !tbaa !10
  store i32 %65, ptr %5, align 4
  store i32 1, ptr %13, align 4
  br label %66

66:                                               ; preds = %60, %24
  call void @llvm.lifetime.end.p0(i64 8, ptr %12) #3
  call void @llvm.lifetime.end.p0(i64 8, ptr %11) #3
  call void @llvm.lifetime.end.p0(i64 4, ptr %10) #3
  %67 = load i32, ptr %5, align 4
  ret i32 %67
}