; Function Attrs: nounwind uwtable
define range(i32 0, 2) i32 @ossl_rsa_check_prime_factor(ptr noundef %0, ptr noundef %1, i32 noundef %2, ptr noundef %3) local_unnamed_addr #0 {
  %5 = tail call i32 @BN_check_prime(ptr noundef %0, ptr noundef %3, ptr noundef null) #3
  %.not = icmp eq i32 %5, 1
  br i1 %.not, label %6, label %22

6:                                                ; preds = %4
  %7 = tail call i32 @ossl_rsa_check_prime_factor_range(ptr noundef %0, i32 noundef %2, ptr noundef %3)
  %.not25.not = icmp eq i32 %7, 0
  br i1 %.not25.not, label %22, label %8

8:                                                ; preds = %6
  tail call void @BN_CTX_start(ptr noundef %3) #3
  %9 = tail call ptr @BN_CTX_get(ptr noundef %3) #3
  %10 = tail call ptr @BN_CTX_get(ptr noundef %3) #3
  %.not26 = icmp eq ptr %10, null
  br i1 %.not26, label %.critedge, label %11

11:                                               ; preds = %8
  tail call void @BN_set_flags(ptr noundef %9, i32 noundef 4) #3
  tail call void @BN_set_flags(ptr noundef nonnull %10, i32 noundef 4) #3
  %12 = tail call ptr @BN_copy(ptr noundef %9, ptr noundef %0) #3
  %.not28 = icmp eq ptr %12, null
  br i1 %.not28, label %.critedge, label %13

13:                                               ; preds = %11
  %14 = tail call i32 @BN_sub_word(ptr noundef %9, i64 noundef 1) #3
  %.not29 = icmp eq i32 %14, 0
  br i1 %.not29, label %.critedge, label %15

15:                                               ; preds = %13
  %16 = tail call i32 @BN_gcd(ptr noundef nonnull %10, ptr noundef %9, ptr noundef %1, ptr noundef %3) #3
  %.not30 = icmp eq i32 %16, 0
  br i1 %.not30, label %.critedge, label %17

17:                                               ; preds = %15
  %18 = tail call i32 @BN_is_one(ptr noundef nonnull %10) #3
  %19 = icmp ne i32 %18, 0
  %20 = zext i1 %19 to i32
  br label %.critedge

.critedge:                                        ; preds = %8, %17, %15, %13, %11
  %21 = phi i32 [ 0, %15 ], [ 0, %13 ], [ 0, %11 ], [ %20, %17 ], [ 0, %8 ]
  tail call void @BN_clear(ptr noundef %9) #3
  tail call void @BN_CTX_end(ptr noundef %3) #3
  br label %22

22:                                               ; preds = %4, %6, %.critedge
  %.023 = phi i32 [ %21, %.critedge ], [ 0, %6 ], [ 0, %4 ]
  ret i32 %.023
}